target datalayout = "e-m:e-p270:32:32-p271:32:32-p272:64:64-i64:64-i128:128-f80:128-n8:16:32:64-S128"
target triple = "x86_64-unknown-linux-gnu"

%"class.node::inspector::protocol::NodeWorker::Frontend" = type { ptr }

; Function Attrs: mustprogress nounwind uwtable
define dso_local void @_ZN4node9inspector8protocol10NodeWorker8Frontend5flushEv(ptr noundef nonnull align 8 dereferenceable(8) %this) #0 align 2 {
entry:
  %this.addr = alloca ptr, align 8
  store ptr %this, ptr %this.addr, align 8
  %this1 = load ptr, ptr %this.addr, align 8
  %m_frontendChannel = getelementptr inbounds %"class.node::inspector::protocol::NodeWorker::Frontend", ptr %this1, i32 0, i32 0
  %0 = load ptr, ptr %m_frontendChannel, align 8
  %vtable = load ptr, ptr %0, align 8
  %vfn = getelementptr inbounds ptr, ptr %vtable, i64 5
  %1 = load ptr, ptr %vfn, align 8
  call void %1(ptr noundef nonnull align 8 dereferenceable(8) %0)
  ret void
}