; Function Attrs: mustprogress nounwind uwtable
define dso_local void @_ZN4node9inspector8protocol10NodeWorker8Frontend5flushEv(ptr nocapture noundef nonnull readonly align 8 dereferenceable(8) %this) local_unnamed_addr #0 align 2 {
entry:
  %0 = load ptr, ptr %this, align 8
  %vtable = load ptr, ptr %0, align 8
  %vfn = getelementptr inbounds i8, ptr %vtable, i64 40
  %1 = load ptr, ptr %vfn, align 8
  tail call void %1(ptr noundef nonnull align 8 dereferenceable(8) %0) #11
  ret void
}